target datalayout = "e-m:e-p270:32:32-p271:32:32-p272:64:64-i64:64-i128:128-f80:128-n8:16:32:64-S128"
target triple = "x86_64-pc-linux-gnu"

%"class.tbb::detail::d1::cache_aligned_allocator" = type { i8 }
%"class.tbb::detail::r1::input_buffer" = type <{ ptr, i64, i64, %"class.tbb::detail::d1::spin_mutex", [7 x i8], i64, i8, [3 x i8], %"class.tbb::detail::r1::basic_tls", i8, [7 x i8] }>
%"class.tbb::detail::d1::spin_mutex" = type { %"struct.std::atomic" }
%"struct.std::atomic" = type { %"struct.std::__atomic_base" }
%"struct.std::__atomic_base" = type { i8 }
%"class.tbb::detail::r1::basic_tls" = type { i32 }
%"struct.tbb::detail::r1::task_info" = type <{ ptr, i64, i8, i8, [6 x i8] }>

; Function Attrs: mustprogress sspstrong uwtable
define linkonce_odr void @_ZN3tbb6detail2d123cache_aligned_allocatorINS0_2r19task_infoEE10deallocateEPS4_m(ptr noundef nonnull align 1 dereferenceable(1) %0, ptr noundef %1, i64 noundef %2) #0 comdat align 2 {
  %4 = alloca ptr, align 8
  %5 = alloca ptr, align 8
  %6 = alloca i64, align 8
  store ptr %0, ptr %4, align 8, !tbaa !31
  store ptr %1, ptr %5, align 8, !tbaa !21
  store i64 %2, ptr %6, align 8, !tbaa !8
  %7 = load ptr, ptr %5, align 8, !tbaa !21
  call void @_ZN3tbb6detail2r124cache_aligned_deallocateEPv(ptr noundef %7)
  ret void
}

; Function Attrs: mustprogress sspstrong uwtable
define linkonce_odr noundef ptr @_ZN3tbb6detail2d123cache_aligned_allocatorINS0_2r19task_infoEE8allocateEm(ptr noundef nonnull align 1 dereferenceable(1) %0, i64 noundef %1) #0 comdat align 2 {
  %3 = alloca ptr, align 8
  %4 = alloca i64, align 8
  store ptr %0, ptr %3, align 8, !tbaa !31
  store i64 %1, ptr %4, align 8, !tbaa !8
  %5 = load i64, ptr %4, align 8, !tbaa !8
  %6 = mul i64 %5, 24
  %7 = call noundef ptr @_ZN3tbb6detail2r122cache_aligned_allocateEm(i64 noundef %6)
  ret ptr %7
}

; Function Attrs: mustprogress sspstrong uwtable
define void @_ZN3tbb6detail2r112input_buffer4growEm(ptr noundef nonnull align 8 dereferenceable(49) %0, i64 noundef %1) #0 align 2 {
  %3 = alloca ptr, align 8
  %4 = alloca i64, align 8
  %5 = alloca i64, align 8
  %6 = alloca i64, align 8
  %7 = alloca ptr, align 8
  %8 = alloca %"class.tbb::detail::d1::cache_aligned_allocator", align 1
  %9 = alloca ptr, align 8
  %10 = alloca i64, align 8
  %11 = alloca i64, align 8
  %12 = alloca i64, align 8
  %13 = alloca %"class.tbb::detail::d1::cache_aligned_allocator", align 1
  store ptr %0, ptr %3, align 8, !tbaa !3
  store i64 %1, ptr %4, align 8, !tbaa !8
  %14 = load ptr, ptr %3, align 8
  call void @llvm.lifetime.start.p0(i64 8, ptr %5) #12
  %15 = getelementptr inbounds nuw %"class.tbb::detail::r1::input_buffer", ptr %14, i32 0, i32 1
  %16 = load i64, ptr %15, align 8, !tbaa !10
  store i64 %16, ptr %5, align 8, !tbaa !8
  call void @llvm.lifetime.start.p0(i64 8, ptr %6) #12
  %17 = load i64, ptr %5, align 8, !tbaa !8
  %18 = icmp ne i64 %17, 0
  br i1 %18, label %19, label %22

19:                                               ; preds = %2
  %20 = load i64, ptr %5, align 8, !tbaa !8
  %21 = mul i64 2, %20
  br label %23

22:                                               ; preds = %2
  br label %23

23:                                               ; preds = %22, %19
  %24 = phi i64 [ %21, %19 ], [ 4, %22 ]
  store i64 %24, ptr %6, align 8, !tbaa !8
  br label %25

25:                                               ; preds = %29, %23
  %26 = load i64, ptr %6, align 8, !tbaa !8
  %27 = load i64, ptr %4, align 8, !tbaa !8
  %28 = icmp ult i64 %26, %27
  br i1 %28, label %29, label %32

29:                                               ; preds = %25
  %30 = load i64, ptr %6, align 8, !tbaa !8
  %31 = mul i64 %30, 2
  store i64 %31, ptr %6, align 8, !tbaa !8
  br label %25, !llvm.loop !19

32:                                               ; preds = %25
  call void @llvm.lifetime.start.p0(i64 8, ptr %7) #12
  call void @llvm.lifetime.start.p0(i64 1, ptr %8) #12
  %33 = load i64, ptr %6, align 8, !tbaa !8
  %34 = call noundef ptr @_ZN3tbb6detail2d123cache_aligned_allocatorINS0_2r19task_infoEE8allocateEm(ptr noundef nonnull align 1 dereferenceable(1) %8, i64 noundef %33)
  call void @llvm.lifetime.end.p0(i64 1, ptr %8) #12
  store ptr %34, ptr %7, align 8, !tbaa !21
  call void @llvm.lifetime.start.p0(i64 8, ptr %9) #12
  %35 = getelementptr inbounds nuw %"class.tbb::detail::r1::input_buffer", ptr %14, i32 0, i32 0
  %36 = load ptr, ptr %35, align 8, !tbaa !22
  store ptr %36, ptr %9, align 8, !tbaa !21
  call void @llvm.lifetime.start.p0(i64 8, ptr %10) #12
  store i64 0, ptr %10, align 8, !tbaa !8
  br label %37

37:                                               ; preds = %47, %32
  %38 = load i64, ptr %10, align 8, !tbaa !8
  %39 = load i64, ptr %6, align 8, !tbaa !8
  %40 = icmp ult i64 %38, %39
  br i1 %40, label %42, label %41

41:                                               ; preds = %37
  call void @llvm.lifetime.end.p0(i64 8, ptr %10) #12
  br label %50

42:                                               ; preds = %37
  %43 = load ptr, ptr %7, align 8, !tbaa !21
  %44 = load i64, ptr %10, align 8, !tbaa !8
  %45 = getelementptr inbounds nuw %"struct.tbb::detail::r1::task_info", ptr %43, i64 %44
  %46 = getelementptr inbounds nuw %"struct.tbb::detail::r1::task_info", ptr %45, i32 0, i32 3
  store i8 0, ptr %46, align 1, !tbaa !23
  br label %47

47:                                               ; preds = %42
  %48 = load i64, ptr %10, align 8, !tbaa !8
  %49 = add i64 %48, 1
  store i64 %49, ptr %10, align 8, !tbaa !8
  br label %37, !llvm.loop !25

50:                                               ; preds = %41
  call void @llvm.lifetime.start.p0(i64 8, ptr %11) #12
  %51 = getelementptr inbounds nuw %"class.tbb::detail::r1::input_buffer", ptr %14, i32 0, i32 2
  %52 = load i64, ptr %51, align 8, !tbaa !26
  store i64 %52, ptr %11, align 8, !tbaa !8
  call void @llvm.lifetime.start.p0(i64 8, ptr %12) #12
  store i64 0, ptr %12, align 8, !tbaa !8
  br label %53

53:                                               ; preds = %71, %50
  %54 = load i64, ptr %12, align 8, !tbaa !8
  %55 = load i64, ptr %5, align 8, !tbaa !8
  %56 = icmp ult i64 %54, %55
  br i1 %56, label %58, label %57

57:                                               ; preds = %53
  call void @llvm.lifetime.end.p0(i64 8, ptr %12) #12
  br label %76

58:                                               ; preds = %53
  %59 = load ptr, ptr %9, align 8, !tbaa !21
  %60 = load i64, ptr %11, align 8, !tbaa !8
  %61 = load i64, ptr %5, align 8, !tbaa !8
  %62 = sub i64 %61, 1
  %63 = and i64 %60, %62
  %64 = getelementptr inbounds nuw %"struct.tbb::detail::r1::task_info", ptr %59, i64 %63
  %65 = load ptr, ptr %7, align 8, !tbaa !21
  %66 = load i64, ptr %11, align 8, !tbaa !8
  %67 = load i64, ptr %6, align 8, !tbaa !8
  %68 = sub i64 %67, 1
  %69 = and i64 %66, %68
  %70 = getelementptr inbounds nuw %"struct.tbb::detail::r1::task_info", ptr %65, i64 %69
  call void @llvm.memcpy.p0.p0.i64(ptr align 8 %70, ptr align 8 %64, i64 18, i1 false), !tbaa.struct !27
  br label %71

71:                                               ; preds = %58
  %72 = load i64, ptr %12, align 8, !tbaa !8
  %73 = add i64 %72, 1
  store i64 %73, ptr %12, align 8, !tbaa !8
  %74 = load i64, ptr %11, align 8, !tbaa !8
  %75 = add i64 %74, 1
  store i64 %75, ptr %11, align 8, !tbaa !8
  br label %53, !llvm.loop !30

76:                                               ; preds = %57
  %77 = load ptr, ptr %7, align 8, !tbaa !21
  %78 = getelementptr inbounds nuw %"class.tbb::detail::r1::input_buffer", ptr %14, i32 0, i32 0
  store ptr %77, ptr %78, align 8, !tbaa !22
  %79 = load i64, ptr %6, align 8, !tbaa !8
  %80 = getelementptr inbounds nuw %"class.tbb::detail::r1::input_buffer", ptr %14, i32 0, i32 1
  store i64 %79, ptr %80, align 8, !tbaa !10
  %81 = load ptr, ptr %9, align 8, !tbaa !21
  %82 = icmp ne ptr %81, null
  br i1 %82, label %83, label %86

83:                                               ; preds = %76
  call void @llvm.lifetime.start.p0(i64 1, ptr %13) #12
  %84 = load ptr, ptr %9, align 8, !tbaa !21
  %85 = load i64, ptr %5, align 8, !tbaa !8
  call void @_ZN3tbb6detail2d123cache_aligned_allocatorINS0_2r19task_infoEE10deallocateEPS4_m(ptr noundef nonnull align 1 dereferenceable(1) %13, ptr noundef %84, i64 noundef %85)
  call void @llvm.lifetime.end.p0(i64 1, ptr %13) #12
  br label %86

86:                                               ; preds = %83, %76
  call void @llvm.lifetime.end.p0(i64 8, ptr %11) #12
  call void @llvm.lifetime.end.p0(i64 8, ptr %9) #12
  call void @llvm.lifetime.end.p0(i64 8, ptr %7) #12
  call void @llvm.lifetime.end.p0(i64 8, ptr %6) #12
  call void @llvm.lifetime.end.p0(i64 8, ptr %5) #12
  ret void
}