; Function Attrs: mustprogress sspstrong uwtable
define void @_ZN3tbb6detail2r112input_buffer4growEm(ptr noundef nonnull align 8 captures(none) dereferenceable(49) %0, i64 noundef %1) local_unnamed_addr #0 align 2 {
  %3 = getelementptr inbounds nuw i8, ptr %0, i64 8
  %4 = load i64, ptr %3, align 8, !tbaa !3
  %.not = icmp eq i64 %4, 0
  %5 = shl i64 %4, 1
  %6 = select i1 %.not, i64 4, i64 %5
  br label %7

7:                                                ; preds = %7, %2
  %.028 = phi i64 [ %6, %2 ], [ %9, %7 ]
  %8 = icmp ult i64 %.028, %1
  %9 = shl i64 %.028, 1
  br i1 %8, label %7, label %10, !llvm.loop !16

10:                                               ; preds = %7
  %11 = mul i64 %.028, 24
  %12 = tail call noundef ptr @_ZN3tbb6detail2r122cache_aligned_allocateEm(i64 noundef %11)
  %13 = load ptr, ptr %0, align 8, !tbaa !18
  %.not39 = icmp eq i64 %.028, 0
  br i1 %.not39, label %._crit_edge, label %.lr.ph

._crit_edge:                                      ; preds = %.lr.ph, %10
  br i1 %.not, label %._crit_edge38, label %.lr.ph37

.lr.ph37:                                         ; preds = %._crit_edge
  %14 = getelementptr inbounds nuw i8, ptr %0, i64 16
  %15 = load i64, ptr %14, align 8, !tbaa !19
  %16 = add i64 %4, -1
  %17 = add i64 %.028, -1
  br label %20

.lr.ph:                                           ; preds = %10, %.lr.ph
  %.02733 = phi i64 [ %19, %.lr.ph ], [ 0, %10 ]
  %18 = getelementptr inbounds nuw %"struct.tbb::detail::r1::task_info", ptr %12, i64 %.02733, i32 3
  store i8 0, ptr %18, align 1, !tbaa !20
  %19 = add nuw i64 %.02733, 1
  %exitcond.not = icmp eq i64 %19, %.028
  br i1 %exitcond.not, label %._crit_edge, label %.lr.ph, !llvm.loop !22

._crit_edge38:                                    ; preds = %._crit_edge
  store ptr %12, ptr %0, align 8, !tbaa !18
  store i64 %.028, ptr %3, align 8, !tbaa !3
  %.not31 = icmp eq ptr %13, null
  br i1 %.not31, label %28, label %27

20:                                               ; preds = %.lr.ph37, %20
  %.035 = phi i64 [ 0, %.lr.ph37 ], [ %25, %20 ]
  %.02634 = phi i64 [ %15, %.lr.ph37 ], [ %26, %20 ]
  %21 = and i64 %.02634, %16
  %22 = getelementptr inbounds nuw %"struct.tbb::detail::r1::task_info", ptr %13, i64 %21
  %23 = and i64 %.02634, %17
  %24 = getelementptr inbounds nuw %"struct.tbb::detail::r1::task_info", ptr %12, i64 %23
  tail call void @llvm.memcpy.p0.p0.i64(ptr noundef nonnull align 8 dereferenceable(18) %24, ptr noundef nonnull align 8 dereferenceable(18) %22, i64 18, i1 false), !tbaa.struct !23
  %25 = add nuw i64 %.035, 1
  %26 = add i64 %.02634, 1
  %exitcond42.not = icmp eq i64 %25, %4
  br i1 %exitcond42.not, label %._crit_edge38.thread, label %20, !llvm.loop !27

._crit_edge38.thread:                             ; preds = %20
  store ptr %12, ptr %0, align 8, !tbaa !18
  store i64 %.028, ptr %3, align 8, !tbaa !3
  br label %27

27:                                               ; preds = %._crit_edge38.thread, %._crit_edge38
  tail call void @_ZN3tbb6detail2r124cache_aligned_deallocateEPv(ptr noundef nonnull %13)
  br label %28

28:                                               ; preds = %27, %._crit_edge38
  ret void
}